target datalayout = "e-m:e-p270:32:32-p271:32:32-p272:64:64-i64:64-i128:128-f80:128-n8:16:32:64-S128"
target triple = "x86_64-pc-linux-gnu"

%struct.Qureg = type { i32, i32, i32, i64, i64, i32, i32, %struct.ComplexArray, %struct.ComplexArray, %struct.ComplexArray, ptr, ptr, ptr, ptr, ptr, ptr }
%struct.ComplexArray = type { ptr, ptr }
%struct.Vector = type { double, double, double }

@__func__.rotateAroundAxis = private unnamed_addr constant [17 x i8] c"rotateAroundAxis\00", align 1

; Function Attrs: nounwind uwtable
define void @rotateAroundAxis(ptr noundef byval(%struct.Qureg) align 8 %0, i32 noundef %1, double noundef %2, ptr noundef byval(%struct.Vector) align 8 %3) #0 {
  %5 = alloca i32, align 4
  %6 = alloca double, align 8
  %7 = alloca i32, align 4
  store i32 %1, ptr %5, align 4, !tbaa !4
  store double %2, ptr %6, align 8, !tbaa !25
  %8 = load i32, ptr %5, align 4, !tbaa !4
  call void @validateTarget(ptr noundef byval(%struct.Qureg) align 8 %0, i32 noundef %8, ptr noundef @__func__.rotateAroundAxis)
  call void @validateVector(ptr noundef byval(%struct.Vector) align 8 %3, ptr noundef @__func__.rotateAroundAxis)
  %9 = load i32, ptr %5, align 4, !tbaa !4
  %10 = load double, ptr %6, align 8, !tbaa !25
  call void @statevec_rotateAroundAxis(ptr noundef byval(%struct.Qureg) align 8 %0, i32 noundef %9, double noundef %10, ptr noundef byval(%struct.Vector) align 8 %3)
  %11 = getelementptr inbounds nuw %struct.Qureg, ptr %0, i32 0, i32 0
  %12 = load i32, ptr %11, align 8, !tbaa !13
  %13 = icmp ne i32 %12, 0
  br i1 %13, label %14, label %21

14:                                               ; preds = %4
  call void @llvm.lifetime.start.p0(i64 4, ptr %7) #7
  %15 = getelementptr inbounds nuw %struct.Qureg, ptr %0, i32 0, i32 1
  %16 = load i32, ptr %15, align 4, !tbaa !18
  store i32 %16, ptr %7, align 4, !tbaa !4
  %17 = load i32, ptr %5, align 4, !tbaa !4
  %18 = load i32, ptr %7, align 4, !tbaa !4
  %19 = add nsw i32 %17, %18
  %20 = load double, ptr %6, align 8, !tbaa !25
  call void @statevec_rotateAroundAxisConj(ptr noundef byval(%struct.Qureg) align 8 %0, i32 noundef %19, double noundef %20, ptr noundef byval(%struct.Vector) align 8 %3)
  call void @llvm.lifetime.end.p0(i64 4, ptr %7) #7
  br label %21

21:                                               ; preds = %14, %4
  %22 = load double, ptr %6, align 8, !tbaa !25
  %23 = load i32, ptr %5, align 4, !tbaa !4
  call void @qasm_recordAxisRotation(ptr noundef byval(%struct.Qureg) align 8 %0, double noundef %22, ptr noundef byval(%struct.Vector) align 8 %3, i32 noundef %23)
  ret void
}