; Function Attrs: nounwind uwtable
define void @rotateAroundAxis(ptr noundef readonly byval(%struct.Qureg) align 8 captures(none) %0, i32 noundef %1, double noundef %2, ptr noundef readonly byval(%struct.Vector) align 8 captures(none) %3) local_unnamed_addr #0 {
  tail call void @validateTarget(ptr noundef nonnull byval(%struct.Qureg) align 8 %0, i32 noundef %1, ptr noundef nonnull @__func__.rotateAroundAxis) #17
  tail call void @validateVector(ptr noundef nonnull byval(%struct.Vector) align 8 %3, ptr noundef nonnull @__func__.rotateAroundAxis) #17
  tail call void @statevec_rotateAroundAxis(ptr noundef nonnull byval(%struct.Qureg) align 8 %0, i32 noundef %1, double noundef %2, ptr noundef nonnull byval(%struct.Vector) align 8 %3) #17
  %5 = load i32, ptr %0, align 8, !tbaa !12
  %.not = icmp eq i32 %5, 0
  br i1 %.not, label %10, label %6

6:                                                ; preds = %4
  %7 = getelementptr inbounds nuw i8, ptr %0, i64 4
  %8 = load i32, ptr %7, align 4, !tbaa !17
  %9 = add nsw i32 %8, %1
  tail call void @statevec_rotateAroundAxisConj(ptr noundef nonnull byval(%struct.Qureg) align 8 %0, i32 noundef %9, double noundef %2, ptr noundef nonnull byval(%struct.Vector) align 8 %3) #17
  br label %10

10:                                               ; preds = %6, %4
  tail call void @qasm_recordAxisRotation(ptr noundef nonnull byval(%struct.Qureg) align 8 %0, double noundef %2, ptr noundef nonnull byval(%struct.Vector) align 8 %3, i32 noundef %1) #17
  ret void
}